target datalayout = "e-m:e-p270:32:32-p271:32:32-p272:64:64-i64:64-i128:128-f80:128-n8:16:32:64-S128"
target triple = "x86_64-pc-linux-gnu"

%"struct.nix::Source" = type { ptr }
%"struct.nix::ChainSource" = type <{ %"struct.nix::Source", ptr, ptr, i8, [7 x i8] }>

@_ZTIN3nix9EndOfFileE = linkonce_odr constant { ptr, ptr, ptr } { ptr getelementptr inbounds (ptr, ptr @_ZTVN10__cxxabiv120__si_class_type_infoE, i64 2), ptr @_ZTSN3nix9EndOfFileE, ptr @_ZTIN3nix5ErrorE }, comdat, align 8

; Function Attrs: mustprogress uwtable
define noundef i64 @_ZN3nix11ChainSource4readEPcm(ptr noundef nonnull align 8 dereferenceable(25) %0, ptr noundef %1, i64 noundef %2) unnamed_addr #3 align 2 personality ptr @__gxx_personality_v0 {
  %4 = alloca i64, align 8
  %5 = alloca ptr, align 8
  %6 = alloca ptr, align 8
  %7 = alloca i64, align 8
  %8 = alloca ptr, align 8
  %9 = alloca i32, align 4
  %10 = alloca ptr, align 8
  store ptr %0, ptr %5, align 8
  store ptr %1, ptr %6, align 8
  store i64 %2, ptr %7, align 8
  %11 = load ptr, ptr %5, align 8
  %12 = getelementptr inbounds %"struct.nix::ChainSource", ptr %11, i32 0, i32 3
  %13 = load i8, ptr %12, align 8
  %14 = trunc i8 %13 to i1
  br i1 %14, label %15, label %24

15:                                               ; preds = %3
  %16 = getelementptr inbounds %"struct.nix::ChainSource", ptr %11, i32 0, i32 2
  %17 = load ptr, ptr %16, align 8
  %18 = load ptr, ptr %6, align 8
  %19 = load i64, ptr %7, align 8
  %20 = load ptr, ptr %17, align 8
  %21 = getelementptr inbounds ptr, ptr %20, i64 2
  %22 = load ptr, ptr %21, align 8
  %23 = call noundef i64 %22(ptr noundef nonnull align 8 dereferenceable(8) %17, ptr noundef %18, i64 noundef %19)
  store i64 %23, ptr %4, align 8
  br label %60

24:                                               ; preds = %3
  %25 = getelementptr inbounds %"struct.nix::ChainSource", ptr %11, i32 0, i32 1
  %26 = load ptr, ptr %25, align 8
  %27 = load ptr, ptr %6, align 8
  %28 = load i64, ptr %7, align 8
  %29 = load ptr, ptr %26, align 8
  %30 = getelementptr inbounds ptr, ptr %29, i64 2
  %31 = load ptr, ptr %30, align 8
  %32 = invoke noundef i64 %31(ptr noundef nonnull align 8 dereferenceable(8) %26, ptr noundef %27, i64 noundef %28)
          to label %33 unwind label %34

33:                                               ; preds = %24
  store i64 %32, ptr %4, align 8
  br label %60

34:                                               ; preds = %24
  %35 = landingpad { ptr, i32 }
          catch ptr @_ZTIN3nix9EndOfFileE
  %36 = extractvalue { ptr, i32 } %35, 0
  store ptr %36, ptr %8, align 8
  %37 = extractvalue { ptr, i32 } %35, 1
  store i32 %37, ptr %9, align 4
  br label %38

38:                                               ; preds = %34
  %39 = load i32, ptr %9, align 4
  %40 = call i32 @llvm.eh.typeid.for(ptr @_ZTIN3nix9EndOfFileE) #1
  %41 = icmp eq i32 %39, %40
  br i1 %41, label %42, label %62

42:                                               ; preds = %38
  %43 = load ptr, ptr %8, align 8
  %44 = call ptr @__cxa_begin_catch(ptr %43) #1
  store ptr %44, ptr %10, align 8
  %45 = getelementptr inbounds %"struct.nix::ChainSource", ptr %11, i32 0, i32 3
  store i8 1, ptr %45, align 8
  %46 = load ptr, ptr %6, align 8
  %47 = load i64, ptr %7, align 8
  %48 = load ptr, ptr %11, align 8
  %49 = getelementptr inbounds ptr, ptr %48, i64 2
  %50 = load ptr, ptr %49, align 8
  %51 = invoke noundef i64 %50(ptr noundef nonnull align 8 dereferenceable(25) %11, ptr noundef %46, i64 noundef %47)
          to label %52 unwind label %53

52:                                               ; preds = %42
  store i64 %51, ptr %4, align 8
  call void @__cxa_end_catch()
  br label %60

53:                                               ; preds = %42
  %54 = landingpad { ptr, i32 }
          cleanup
  %55 = extractvalue { ptr, i32 } %54, 0
  store ptr %55, ptr %8, align 8
  %56 = extractvalue { ptr, i32 } %54, 1
  store i32 %56, ptr %9, align 4
  invoke void @__cxa_end_catch()
          to label %57 unwind label %67

57:                                               ; preds = %53
  br label %62

58:                                               ; No predecessors!
  br label %59

59:                                               ; preds = %58
  call void @llvm.trap()
  unreachable

60:                                               ; preds = %52, %33, %15
  %61 = load i64, ptr %4, align 8
  ret i64 %61

62:                                               ; preds = %57, %38
  %63 = load ptr, ptr %8, align 8
  %64 = load i32, ptr %9, align 4
  %65 = insertvalue { ptr, i32 } poison, ptr %63, 0
  %66 = insertvalue { ptr, i32 } %65, i32 %64, 1
  resume { ptr, i32 } %66

67:                                               ; preds = %53
  %68 = landingpad { ptr, i32 }
          catch ptr null
  %69 = extractvalue { ptr, i32 } %68, 0
  call void @__clang_call_terminate(ptr %69) #24
  unreachable
}