; Function Attrs: mustprogress uwtable
define noundef i64 @_ZN3nix11ChainSource4readEPcm(ptr noundef nonnull align 8 dereferenceable(25) %0, ptr noundef %1, i64 noundef %2) unnamed_addr #2 align 2 personality ptr @__gxx_personality_v0 {
  %4 = getelementptr inbounds i8, ptr %0, i64 24
  %5 = load i8, ptr %4, align 8
  %6 = and i8 %5, 1
  %.not = icmp eq i8 %6, 0
  br i1 %.not, label %14, label %7

7:                                                ; preds = %3
  %8 = getelementptr inbounds i8, ptr %0, i64 16
  %9 = load ptr, ptr %8, align 8
  %10 = load ptr, ptr %9, align 8
  %11 = getelementptr inbounds i8, ptr %10, i64 16
  %12 = load ptr, ptr %11, align 8
  %13 = tail call noundef i64 %12(ptr noundef nonnull align 8 dereferenceable(8) %9, ptr noundef %1, i64 noundef %2)
  br label %36

14:                                               ; preds = %3
  %15 = getelementptr inbounds i8, ptr %0, i64 8
  %16 = load ptr, ptr %15, align 8
  %17 = load ptr, ptr %16, align 8
  %18 = getelementptr inbounds i8, ptr %17, i64 16
  %19 = load ptr, ptr %18, align 8
  %20 = invoke noundef i64 %19(ptr noundef nonnull align 8 dereferenceable(8) %16, ptr noundef %1, i64 noundef %2)
          to label %36 unwind label %21

21:                                               ; preds = %14
  %22 = landingpad { ptr, i32 }
          catch ptr @_ZTIN3nix9EndOfFileE
  %23 = extractvalue { ptr, i32 } %22, 1
  %24 = tail call i32 @llvm.eh.typeid.for(ptr nonnull @_ZTIN3nix9EndOfFileE) #34
  %25 = icmp eq i32 %23, %24
  br i1 %25, label %26, label %37

26:                                               ; preds = %21
  %27 = extractvalue { ptr, i32 } %22, 0
  %28 = tail call ptr @__cxa_begin_catch(ptr %27) #34
  store i8 1, ptr %4, align 8
  %29 = load ptr, ptr %0, align 8
  %30 = getelementptr inbounds i8, ptr %29, i64 16
  %31 = load ptr, ptr %30, align 8
  %32 = invoke noundef i64 %31(ptr noundef nonnull align 8 dereferenceable(25) %0, ptr noundef %1, i64 noundef %2)
          to label %33 unwind label %34

33:                                               ; preds = %26
  tail call void @__cxa_end_catch()
  br label %36

34:                                               ; preds = %26
  %35 = landingpad { ptr, i32 }
          cleanup
  invoke void @__cxa_end_catch()
          to label %37 unwind label %38

36:                                               ; preds = %14, %33, %7
  %.0 = phi i64 [ %13, %7 ], [ %32, %33 ], [ %20, %14 ]
  ret i64 %.0

37:                                               ; preds = %34, %21
  %.merged = phi { ptr, i32 } [ %35, %34 ], [ %22, %21 ]
  resume { ptr, i32 } %.merged

38:                                               ; preds = %34
  %39 = landingpad { ptr, i32 }
          catch ptr null
  %40 = extractvalue { ptr, i32 } %39, 0
  tail call void @__clang_call_terminate(ptr %40) #38
  unreachable
}